ccopy_reg
_reconstructor
p0
(crequests.models
Response
p1
c__builtin__
object
p2
Ntp3
Rp4
(dp5
S'cookies'
p6
g0
(crequests.cookies
RequestsCookieJar
p7
g2
Ntp8
Rp9
(dp10
S'_now'
p11
I1497975870
sS'_policy'
p12
(icookielib
DefaultCookiePolicy
p13
(dp14
S'strict_rfc2965_unverifiable'
p15
I01
sS'strict_ns_domain'
p16
I0
sS'_allowed_domains'
p17
NsS'rfc2109_as_netscape'
p18
NsS'rfc2965'
p19
I00
sS'strict_domain'
p20
I00
sg11
I1497975870
sS'strict_ns_set_path'
p21
I00
sS'strict_ns_unverifiable'
p22
I00
sS'strict_ns_set_initial_dollar'
p23
I00
sS'hide_cookie2'
p24
I00
sS'_blocked_domains'
p25
(tsS'netscape'
p26
I01
sbsS'_cookies'
p27
(dp28
sbsS'_content'
p29
S'[{"place_id":"159626563","licence":"Data \xc2\xa9 OpenStreetMap contributors, ODbL 1.0. http:\\/\\/www.openstreetmap.org\\/copyright","osm_type":"way","osm_id":"413055246","boundingbox":["40.7118001","40.7139825","-74.0078192","-74.0043418"],"lat":"40.71262475","lon":"-74.0062428541059","display_name":"City Hall Park, Steve Flanders Square, Tribeca, Manhattan, Manhattan Community Board 1, New York County, NYC, New York, 10007, United States of America","class":"leisure","type":"park","importance":0.711,"address":{"park":"City Hall Park","road":"Steve Flanders Square","neighbourhood":"Tribeca","suburb":"Manhattan","city":"NYC","county":"New York County","state":"New York","postcode":"10007","country":"United States of America","country_code":"us"}}]'
p30
sS'encoding'
p31
S'UTF-8'
p32
sS'url'
p33
Vhttp://nominatim.openstreetmap.org/search?q=City+Hall+Park%2C+New+York%2C+NY+10007&addressdetails=1&format=json
p34
sS'status_code'
p35
I200
sS'request'
p36
g0
(crequests.models
PreparedRequest
p37
g2
Ntp38
Rp39
(dp40
S'body'
p41
Nsg33
S'http://nominatim.openstreetmap.org/search?q=City+Hall+Park%2C+New+York%2C+NY+10007&addressdetails=1&format=json'
p42
sS'hooks'
p43
(dp44
S'response'
p45
(lp46
ssS'headers'
p47
g0
(crequests.structures
CaseInsensitiveDict
p48
g2
Ntp49
Rp50
(dp51
S'_store'
p52
crequests.packages.urllib3.packages.ordered_dict
OrderedDict
p53
((lp54
(lp55
S'connection'
p56
a(S'Connection'
p57
S'keep-alive'
p58
tp59
aa(lp60
S'accept-encoding'
p61
a(S'Accept-Encoding'
p62
S'gzip, deflate'
p63
tp64
aa(lp65
S'accept'
p66
a(S'Accept'
p67
S'*/*'
p68
tp69
aa(lp70
S'user-agent'
p71
a(S'User-Agent'
p72
S'python-requests/2.14.2'
p73
tp74
aatp75
Rp76
sbsS'_body_position'
p77
Nsg27
g0
(g7
g2
Ntp78
Rp79
(dp80
g11
I1497975870
sg12
(icookielib
DefaultCookiePolicy
p81
(dp82
g15
I01
sg16
I0
sg17
Nsg18
Nsg19
I00
sg20
I00
sg11
I1497975870
sg21
I00
sg22
I00
sg23
I00
sg24
I00
sg25
(tsg26
I01
sbsg27
(dp83
sbsS'method'
p84
S'GET'
p85
sbsS'elapsed'
p86
cdatetime
timedelta
p87
(I0
I0
I217270
tp88
Rp89
sg47
g0
(g48
g2
Ntp90
Rp91
(dp92
g52
g53
((lp93
(lp94
S'date'
p95
a(S'Date'
p96
S'Tue, 20 Jun 2017 16:24:30 GMT'
p97
tp98
aa(lp99
S'server'
p100
a(S'Server'
p101
S'Apache/2.4.18 (Ubuntu)'
p102
tp103
aa(lp104
S'access-control-allow-origin'
p105
a(S'Access-Control-Allow-Origin'
p106
S'*'
p107
tp108
aa(lp109
S'access-control-allow-methods'
p110
a(S'Access-Control-Allow-Methods'
p111
S'OPTIONS,GET'
p112
tp113
aa(lp114
S'connection'
p115
a(S'Connection'
p116
S'close'
p117
tp118
aa(lp119
S'transfer-encoding'
p120
a(S'Transfer-Encoding'
p121
S'chunked'
p122
tp123
aa(lp124
S'content-type'
p125
a(S'Content-Type'
p126
S'application/json; charset=UTF-8'
p127
tp128
aatp129
Rp130
sbsS'reason'
p131
S'OK'
p132
sS'history'
p133
(lp134
sb.